target datalayout = "e-m:e-p270:32:32-p271:32:32-p272:64:64-i64:64-i128:128-f80:128-n8:16:32:64-S128"
target triple = "x86_64-pc-linux-gnu"

%struct.ASMState = type { [32 x i32], ptr, ptr, ptr, ptr, %struct.x86ModRM, i32, i32, i32, i32, i32, i32, i32, i32, i32, i32, i32, i32, i32, i32, i32, i32, i64, i64, i32, i32, i32, i32, i32, ptr, ptr, ptr, ptr, ptr, ptr, ptr, ptr, ptr, [32 x i16], [250 x i16] }
%struct.x86ModRM = type { i32, i8, i8, i8 }

; Function Attrs: noinline noreturn nounwind uwtable
define internal void @asm_mclimit(ptr noundef %0) #7 {
  %2 = alloca ptr, align 8
  store ptr %0, ptr %2, align 8, !tbaa !33
  %3 = load ptr, ptr %2, align 8, !tbaa !33
  %4 = getelementptr inbounds nuw %struct.ASMState, ptr %3, i32 0, i32 4
  %5 = load ptr, ptr %4, align 8, !tbaa !51
  %6 = load ptr, ptr %2, align 8, !tbaa !33
  %7 = getelementptr inbounds nuw %struct.ASMState, ptr %6, i32 0, i32 32
  %8 = load ptr, ptr %7, align 8, !tbaa !66
  %9 = load ptr, ptr %2, align 8, !tbaa !33
  %10 = getelementptr inbounds nuw %struct.ASMState, ptr %9, i32 0, i32 1
  %11 = load ptr, ptr %10, align 8, !tbaa !67
  %12 = ptrtoint ptr %8 to i64
  %13 = ptrtoint ptr %11 to i64
  %14 = sub i64 %12, %13
  %15 = add nsw i64 %14, 256
  call void @lj_mcode_limiterr(ptr noundef %5, i64 noundef %15) #12
  unreachable
}