; Function Attrs: noinline noreturn nounwind uwtable
define internal fastcc void @asm_mclimit(ptr noundef nonnull readonly captures(none) %0) unnamed_addr #6 {
  %2 = getelementptr inbounds nuw i8, ptr %0, i64 152
  %3 = load ptr, ptr %2, align 8, !tbaa !44
  %4 = getelementptr inbounds nuw i8, ptr %0, i64 296
  %5 = load ptr, ptr %4, align 8, !tbaa !59
  %6 = getelementptr inbounds nuw i8, ptr %0, i64 128
  %7 = load ptr, ptr %6, align 8, !tbaa !60
  %8 = ptrtoint ptr %5 to i64
  %9 = ptrtoint ptr %7 to i64
  %10 = add i64 %8, 256
  %11 = sub i64 %10, %9
  tail call void @lj_mcode_limiterr(ptr noundef %3, i64 noundef %11) #15
  unreachable
}